target datalayout = "e-m:e-p270:32:32-p271:32:32-p272:64:64-i64:64-i128:128-f80:128-n8:16:32:64-S128"
target triple = "x86_64-pc-linux-gnu"

%struct.nghttp2_hd_deflater = type { %struct.nghttp2_hd_context, %struct.nghttp2_hd_map, i64, i64, i8 }
%struct.nghttp2_hd_context = type { %struct.nghttp2_hd_ringbuf, ptr, i64, i64, i32, i8 }
%struct.nghttp2_hd_ringbuf = type { ptr, i64, i64, i64 }
%struct.nghttp2_hd_map = type { [128 x ptr] }

; Function Attrs: nounwind uwtable
define internal i32 @hd_ringbuf_init(ptr noundef %0, i64 noundef %1, ptr noundef %2) #0 {
  %4 = alloca i32, align 4
  %5 = alloca ptr, align 8
  %6 = alloca i64, align 8
  %7 = alloca ptr, align 8
  %8 = alloca i64, align 8
  %9 = alloca i32, align 4
  store ptr %0, ptr %5, align 8, !tbaa !9
  store i64 %1, ptr %6, align 8, !tbaa !38
  store ptr %2, ptr %7, align 8, !tbaa !9
  call void @llvm.lifetime.start.p0(i64 8, ptr %8) #6
  store i64 1, ptr %8, align 8, !tbaa !38
  br label %10

10:                                               ; preds = %15, %3
  %11 = load i64, ptr %8, align 8, !tbaa !38
  %12 = load i64, ptr %6, align 8, !tbaa !38
  %13 = icmp ult i64 %11, %12
  br i1 %13, label %14, label %18

14:                                               ; preds = %10
  br label %15

15:                                               ; preds = %14
  %16 = load i64, ptr %8, align 8, !tbaa !38
  %17 = shl i64 %16, 1
  store i64 %17, ptr %8, align 8, !tbaa !38
  br label %10, !llvm.loop !117

18:                                               ; preds = %10
  %19 = load ptr, ptr %7, align 8, !tbaa !9
  %20 = load i64, ptr %8, align 8, !tbaa !38
  %21 = mul i64 8, %20
  %22 = call ptr @nghttp2_mem_malloc(ptr noundef %19, i64 noundef %21)
  %23 = load ptr, ptr %5, align 8, !tbaa !9
  %24 = getelementptr inbounds nuw %struct.nghttp2_hd_ringbuf, ptr %23, i32 0, i32 0
  store ptr %22, ptr %24, align 8, !tbaa !80
  %25 = load ptr, ptr %5, align 8, !tbaa !9
  %26 = getelementptr inbounds nuw %struct.nghttp2_hd_ringbuf, ptr %25, i32 0, i32 0
  %27 = load ptr, ptr %26, align 8, !tbaa !80
  %28 = icmp eq ptr %27, null
  br i1 %28, label %29, label %30

29:                                               ; preds = %18
  store i32 -901, ptr %4, align 4
  store i32 1, ptr %9, align 4
  br label %39

30:                                               ; preds = %18
  %31 = load i64, ptr %8, align 8, !tbaa !38
  %32 = sub i64 %31, 1
  %33 = load ptr, ptr %5, align 8, !tbaa !9
  %34 = getelementptr inbounds nuw %struct.nghttp2_hd_ringbuf, ptr %33, i32 0, i32 1
  store i64 %32, ptr %34, align 8, !tbaa !82
  %35 = load ptr, ptr %5, align 8, !tbaa !9
  %36 = getelementptr inbounds nuw %struct.nghttp2_hd_ringbuf, ptr %35, i32 0, i32 2
  store i64 0, ptr %36, align 8, !tbaa !81
  %37 = load ptr, ptr %5, align 8, !tbaa !9
  %38 = getelementptr inbounds nuw %struct.nghttp2_hd_ringbuf, ptr %37, i32 0, i32 3
  store i64 0, ptr %38, align 8, !tbaa !118
  store i32 0, ptr %4, align 4
  store i32 1, ptr %9, align 4
  br label %39

39:                                               ; preds = %30, %29
  call void @llvm.lifetime.end.p0(i64 8, ptr %8) #6
  %40 = load i32, ptr %4, align 4
  ret i32 %40
}

; Function Attrs: nounwind uwtable
define internal void @hd_map_init(ptr noundef %0) #0 {
  %2 = alloca ptr, align 8
  store ptr %0, ptr %2, align 8, !tbaa !9
  %3 = load ptr, ptr %2, align 8, !tbaa !9
  call void @llvm.memset.p0.i64(ptr align 8 %3, i8 0, i64 1024, i1 false)
  ret void
}

; Function Attrs: nounwind uwtable
define internal i32 @hd_context_init(ptr noundef %0, ptr noundef %1) #0 {
  %3 = alloca i32, align 4
  %4 = alloca ptr, align 8
  %5 = alloca ptr, align 8
  %6 = alloca i32, align 4
  %7 = alloca i32, align 4
  store ptr %0, ptr %4, align 8, !tbaa !9
  store ptr %1, ptr %5, align 8, !tbaa !9
  call void @llvm.lifetime.start.p0(i64 4, ptr %6) #6
  %8 = load ptr, ptr %5, align 8, !tbaa !9
  %9 = load ptr, ptr %4, align 8, !tbaa !9
  %10 = getelementptr inbounds nuw %struct.nghttp2_hd_context, ptr %9, i32 0, i32 1
  store ptr %8, ptr %10, align 8, !tbaa !48
  %11 = load ptr, ptr %4, align 8, !tbaa !9
  %12 = getelementptr inbounds nuw %struct.nghttp2_hd_context, ptr %11, i32 0, i32 5
  store i8 0, ptr %12, align 4, !tbaa !49
  %13 = load ptr, ptr %4, align 8, !tbaa !9
  %14 = getelementptr inbounds nuw %struct.nghttp2_hd_context, ptr %13, i32 0, i32 3
  store i64 4096, ptr %14, align 8, !tbaa !50
  %15 = load ptr, ptr %4, align 8, !tbaa !9
  %16 = getelementptr inbounds nuw %struct.nghttp2_hd_context, ptr %15, i32 0, i32 0
  %17 = load ptr, ptr %4, align 8, !tbaa !9
  %18 = getelementptr inbounds nuw %struct.nghttp2_hd_context, ptr %17, i32 0, i32 3
  %19 = load i64, ptr %18, align 8, !tbaa !50
  %20 = udiv i64 %19, 32
  %21 = load ptr, ptr %5, align 8, !tbaa !9
  %22 = call i32 @hd_ringbuf_init(ptr noundef %16, i64 noundef %20, ptr noundef %21)
  store i32 %22, ptr %6, align 4, !tbaa !13
  %23 = load i32, ptr %6, align 4, !tbaa !13
  %24 = icmp ne i32 %23, 0
  br i1 %24, label %25, label %27

25:                                               ; preds = %2
  %26 = load i32, ptr %6, align 4, !tbaa !13
  store i32 %26, ptr %3, align 4
  store i32 1, ptr %7, align 4
  br label %32

27:                                               ; preds = %2
  %28 = load ptr, ptr %4, align 8, !tbaa !9
  %29 = getelementptr inbounds nuw %struct.nghttp2_hd_context, ptr %28, i32 0, i32 2
  store i64 0, ptr %29, align 8, !tbaa !51
  %30 = load ptr, ptr %4, align 8, !tbaa !9
  %31 = getelementptr inbounds nuw %struct.nghttp2_hd_context, ptr %30, i32 0, i32 4
  store i32 0, ptr %31, align 8, !tbaa !52
  store i32 0, ptr %3, align 4
  store i32 1, ptr %7, align 4
  br label %32

32:                                               ; preds = %27, %25
  call void @llvm.lifetime.end.p0(i64 4, ptr %6) #6
  %33 = load i32, ptr %3, align 4
  ret i32 %33
}

; Function Attrs: nounwind uwtable
define dso_local i32 @nghttp2_hd_deflate_init2(ptr noundef %0, i64 noundef %1, ptr noundef %2) #0 {
  %4 = alloca i32, align 4
  %5 = alloca ptr, align 8
  %6 = alloca i64, align 8
  %7 = alloca ptr, align 8
  %8 = alloca i32, align 4
  %9 = alloca i32, align 4
  store ptr %0, ptr %5, align 8, !tbaa !36
  store i64 %1, ptr %6, align 8, !tbaa !38
  store ptr %2, ptr %7, align 8, !tbaa !9
  call void @llvm.lifetime.start.p0(i64 4, ptr %8) #6
  %10 = load ptr, ptr %5, align 8, !tbaa !36
  %11 = getelementptr inbounds nuw %struct.nghttp2_hd_deflater, ptr %10, i32 0, i32 0
  %12 = load ptr, ptr %7, align 8, !tbaa !9
  %13 = call i32 @hd_context_init(ptr noundef %11, ptr noundef %12)
  store i32 %13, ptr %8, align 4, !tbaa !13
  %14 = load i32, ptr %8, align 4, !tbaa !13
  %15 = icmp ne i32 %14, 0
  br i1 %15, label %16, label %18

16:                                               ; preds = %3
  %17 = load i32, ptr %8, align 4, !tbaa !13
  store i32 %17, ptr %4, align 4
  store i32 1, ptr %9, align 4
  br label %39

18:                                               ; preds = %3
  %19 = load ptr, ptr %5, align 8, !tbaa !36
  %20 = getelementptr inbounds nuw %struct.nghttp2_hd_deflater, ptr %19, i32 0, i32 1
  call void @hd_map_init(ptr noundef %20)
  %21 = load i64, ptr %6, align 8, !tbaa !38
  %22 = icmp ult i64 %21, 4096
  br i1 %22, label %23, label %30

23:                                               ; preds = %18
  %24 = load ptr, ptr %5, align 8, !tbaa !36
  %25 = getelementptr inbounds nuw %struct.nghttp2_hd_deflater, ptr %24, i32 0, i32 4
  store i8 1, ptr %25, align 8, !tbaa !39
  %26 = load i64, ptr %6, align 8, !tbaa !38
  %27 = load ptr, ptr %5, align 8, !tbaa !36
  %28 = getelementptr inbounds nuw %struct.nghttp2_hd_deflater, ptr %27, i32 0, i32 0
  %29 = getelementptr inbounds nuw %struct.nghttp2_hd_context, ptr %28, i32 0, i32 3
  store i64 %26, ptr %29, align 8, !tbaa !45
  br label %33

30:                                               ; preds = %18
  %31 = load ptr, ptr %5, align 8, !tbaa !36
  %32 = getelementptr inbounds nuw %struct.nghttp2_hd_deflater, ptr %31, i32 0, i32 4
  store i8 0, ptr %32, align 8, !tbaa !39
  br label %33

33:                                               ; preds = %30, %23
  %34 = load i64, ptr %6, align 8, !tbaa !38
  %35 = load ptr, ptr %5, align 8, !tbaa !36
  %36 = getelementptr inbounds nuw %struct.nghttp2_hd_deflater, ptr %35, i32 0, i32 2
  store i64 %34, ptr %36, align 8, !tbaa !46
  %37 = load ptr, ptr %5, align 8, !tbaa !36
  %38 = getelementptr inbounds nuw %struct.nghttp2_hd_deflater, ptr %37, i32 0, i32 3
  store i64 4294967295, ptr %38, align 8, !tbaa !47
  store i32 0, ptr %4, align 4
  store i32 1, ptr %9, align 4
  br label %39

39:                                               ; preds = %33, %16
  call void @llvm.lifetime.end.p0(i64 4, ptr %8) #6
  %40 = load i32, ptr %4, align 4
  ret i32 %40
}

; Function Attrs: nounwind uwtable
define dso_local i32 @nghttp2_hd_deflate_new2(ptr noundef %0, i64 noundef %1, ptr noundef %2) #0 {
  %4 = alloca i32, align 4
  %5 = alloca ptr, align 8
  %6 = alloca i64, align 8
  %7 = alloca ptr, align 8
  %8 = alloca i32, align 4
  %9 = alloca ptr, align 8
  %10 = alloca i32, align 4
  store ptr %0, ptr %5, align 8, !tbaa !98
  store i64 %1, ptr %6, align 8, !tbaa !38
  store ptr %2, ptr %7, align 8, !tbaa !9
  call void @llvm.lifetime.start.p0(i64 4, ptr %8) #6
  call void @llvm.lifetime.start.p0(i64 8, ptr %9) #6
  %11 = load ptr, ptr %7, align 8, !tbaa !9
  %12 = icmp eq ptr %11, null
  br i1 %12, label %13, label %15

13:                                               ; preds = %3
  %14 = call ptr @nghttp2_mem_default()
  store ptr %14, ptr %7, align 8, !tbaa !9
  br label %15

15:                                               ; preds = %13, %3
  %16 = load ptr, ptr %7, align 8, !tbaa !9
  %17 = call ptr @nghttp2_mem_malloc(ptr noundef %16, i64 noundef 1112)
  store ptr %17, ptr %9, align 8, !tbaa !36
  %18 = load ptr, ptr %9, align 8, !tbaa !36
  %19 = icmp eq ptr %18, null
  br i1 %19, label %20, label %21

20:                                               ; preds = %15
  store i32 -901, ptr %4, align 4
  store i32 1, ptr %10, align 4
  br label %35

21:                                               ; preds = %15
  %22 = load ptr, ptr %9, align 8, !tbaa !36
  %23 = load i64, ptr %6, align 8, !tbaa !38
  %24 = load ptr, ptr %7, align 8, !tbaa !9
  %25 = call i32 @nghttp2_hd_deflate_init2(ptr noundef %22, i64 noundef %23, ptr noundef %24)
  store i32 %25, ptr %8, align 4, !tbaa !13
  %26 = load i32, ptr %8, align 4, !tbaa !13
  %27 = icmp ne i32 %26, 0
  br i1 %27, label %28, label %32

28:                                               ; preds = %21
  %29 = load ptr, ptr %7, align 8, !tbaa !9
  %30 = load ptr, ptr %9, align 8, !tbaa !36
  call void @nghttp2_mem_free(ptr noundef %29, ptr noundef %30)
  %31 = load i32, ptr %8, align 4, !tbaa !13
  store i32 %31, ptr %4, align 4
  store i32 1, ptr %10, align 4
  br label %35

32:                                               ; preds = %21
  %33 = load ptr, ptr %9, align 8, !tbaa !36
  %34 = load ptr, ptr %5, align 8, !tbaa !98
  store ptr %33, ptr %34, align 8, !tbaa !36
  store i32 0, ptr %4, align 4
  store i32 1, ptr %10, align 4
  br label %35

35:                                               ; preds = %32, %28, %20
  call void @llvm.lifetime.end.p0(i64 8, ptr %9) #6
  call void @llvm.lifetime.end.p0(i64 4, ptr %8) #6
  %36 = load i32, ptr %4, align 4
  ret i32 %36
}